; Function Attrs: mustprogress uwtable
define hidden void @_ZN2lp10lar_solver27set_value_for_nbasic_columnEjRKNS_12numeric_pairI8rationalEE(ptr noundef nonnull align 8 dereferenceable(2128) %0, i32 noundef %1, ptr noundef nonnull align 8 dereferenceable(64) %2) local_unnamed_addr #5 align 2 personality ptr @__gxx_personality_v0 {
  %4 = alloca %"struct.lp::numeric_pair", align 8
  %5 = getelementptr inbounds nuw i8, ptr %0, i64 536
  %6 = load ptr, ptr %5, align 8, !tbaa !275
  %7 = zext i32 %1 to i64
  %8 = getelementptr inbounds nuw %"struct.lp::numeric_pair", ptr %6, i64 %7
  call void @llvm.lifetime.start.p0(i64 64, ptr nonnull %4) #30
  call void @_ZNK2lp12numeric_pairI8rationalEmiERKS2_(ptr dead_on_unwind nonnull writable sret(%"struct.lp::numeric_pair") align 8 %4, ptr noundef nonnull align 8 dereferenceable(64) %2, ptr noundef nonnull align 8 dereferenceable(64) %8)
  %9 = invoke noundef nonnull align 8 dereferenceable(64) ptr @_ZN2lp12numeric_pairI8rationalEaSERKS2_(ptr noundef nonnull align 8 dereferenceable(64) %8, ptr noundef nonnull align 8 dereferenceable(64) %2)
          to label %10 unwind label %23

10:                                               ; preds = %3
  invoke void @_ZN2lp10lar_solver51change_basic_columns_dependend_on_a_given_nb_columnEjRKNS_12numeric_pairI8rationalEE(ptr noundef nonnull align 8 dereferenceable(2128) %0, i32 noundef %1, ptr noundef nonnull align 8 dereferenceable(64) %4)
          to label %11 unwind label %23

11:                                               ; preds = %10
  %12 = getelementptr inbounds nuw i8, ptr %4, i64 32
  %13 = load ptr, ptr @_ZN8rational13g_mpq_managerE, align 8, !tbaa !248
  invoke void @_ZN11mpz_managerILb1EE3delEPS0_R3mpz(ptr noundef %13, ptr noundef nonnull align 8 dereferenceable(32) %12)
          to label %.noexc.i.i unwind label %15

.noexc.i.i:                                       ; preds = %11
  %14 = getelementptr inbounds nuw i8, ptr %4, i64 48
  invoke void @_ZN11mpz_managerILb1EE3delEPS0_R3mpz(ptr noundef %13, ptr noundef nonnull align 8 dereferenceable(16) %14)
          to label %_ZN8rationalD2Ev.exit.i unwind label %15

15:                                               ; preds = %.noexc.i.i, %11
  %16 = landingpad { ptr, i32 }
          catch ptr null
  %17 = extractvalue { ptr, i32 } %16, 0
  call void @__clang_call_terminate(ptr %17) #31
  unreachable

_ZN8rationalD2Ev.exit.i:                          ; preds = %.noexc.i.i
  %18 = load ptr, ptr @_ZN8rational13g_mpq_managerE, align 8, !tbaa !248
  invoke void @_ZN11mpz_managerILb1EE3delEPS0_R3mpz(ptr noundef %18, ptr noundef nonnull align 8 dereferenceable(64) %4)
          to label %.noexc.i1.i unwind label %20

.noexc.i1.i:                                      ; preds = %_ZN8rationalD2Ev.exit.i
  %19 = getelementptr inbounds nuw i8, ptr %4, i64 16
  invoke void @_ZN11mpz_managerILb1EE3delEPS0_R3mpz(ptr noundef %18, ptr noundef nonnull align 8 dereferenceable(16) %19)
          to label %_ZN2lp12numeric_pairI8rationalED2Ev.exit unwind label %20

20:                                               ; preds = %.noexc.i1.i, %_ZN8rationalD2Ev.exit.i
  %21 = landingpad { ptr, i32 }
          catch ptr null
  %22 = extractvalue { ptr, i32 } %21, 0
  call void @__clang_call_terminate(ptr %22) #31
  unreachable

_ZN2lp12numeric_pairI8rationalED2Ev.exit:         ; preds = %.noexc.i1.i
  call void @llvm.lifetime.end.p0(i64 64, ptr nonnull %4) #30
  ret void

23:                                               ; preds = %10, %3
  %24 = landingpad { ptr, i32 }
          cleanup
  call void @_ZN2lp12numeric_pairI8rationalED2Ev(ptr noundef nonnull align 8 dereferenceable(64) %4) #30
  call void @llvm.lifetime.end.p0(i64 64, ptr nonnull %4) #30
  resume { ptr, i32 } %24
}